target datalayout = "e-m:e-p270:32:32-p271:32:32-p272:64:64-i64:64-i128:128-f80:128-n8:16:32:64-S128"
target triple = "x86_64-pc-linux-gnu"

%struct.AllocSetContext = type { %struct.MemoryContextData, ptr, [11 x ptr], i32, i32, i32, i32, i32 }
%struct.MemoryContextData = type { i32, i8, i8, i64, ptr, ptr, ptr, ptr, ptr, ptr, ptr, ptr }
%struct.AllocBlockData = type { ptr, ptr, ptr, ptr, ptr }
%struct.AllocFreeListLink = type { ptr }
%struct.MemoryChunk = type { i64 }

; Function Attrs: inlinehint nounwind uwtable
define internal void @MemoryChunkSetHdrMask(ptr noundef %0, ptr noundef %1, i64 noundef %2, i32 noundef %3) #8 {
  %5 = alloca ptr, align 8
  %6 = alloca ptr, align 8
  %7 = alloca i64, align 8
  %8 = alloca i32, align 4
  %9 = alloca i64, align 8
  store ptr %0, ptr %5, align 8
  store ptr %1, ptr %6, align 8
  store i64 %2, ptr %7, align 8
  store i32 %3, ptr %8, align 4
  call void @llvm.lifetime.start.p0(i64 8, ptr %9) #14
  %10 = load ptr, ptr %5, align 8
  %11 = load ptr, ptr %6, align 8
  %12 = ptrtoint ptr %10 to i64
  %13 = ptrtoint ptr %11 to i64
  %14 = sub i64 %12, %13
  store i64 %14, ptr %9, align 8
  %15 = load i64, ptr %9, align 8
  %16 = shl i64 %15, 34
  %17 = load i64, ptr %7, align 8
  %18 = shl i64 %17, 5
  %19 = or i64 %16, %18
  %20 = load i32, ptr %8, align 4
  %21 = zext i32 %20 to i64
  %22 = or i64 %19, %21
  %23 = load ptr, ptr %5, align 8
  %24 = getelementptr inbounds nuw %struct.MemoryChunk, ptr %23, i32 0, i32 0
  store i64 %22, ptr %24, align 8
  call void @llvm.lifetime.end.p0(i64 8, ptr %9) #14
  ret void
}

; Function Attrs: inlinehint nounwind uwtable
define internal i32 @pg_leftmost_one_pos32(i32 noundef %0) #8 {
  %2 = alloca i32, align 4
  store i32 %0, ptr %2, align 4
  %3 = load i32, ptr %2, align 4
  %4 = call i32 @llvm.ctlz.i32(i32 %3, i1 true)
  %5 = sub i32 31, %4
  ret i32 %5
}

; Function Attrs: inlinehint nounwind uwtable
define internal ptr @AllocSetAllocChunkFromBlock(ptr noundef %0, ptr noundef %1, i64 noundef %2, i64 noundef %3, i32 noundef %4) #8 {
  %6 = alloca ptr, align 8
  %7 = alloca ptr, align 8
  %8 = alloca i64, align 8
  %9 = alloca i64, align 8
  %10 = alloca i32, align 4
  %11 = alloca ptr, align 8
  store ptr %0, ptr %6, align 8
  store ptr %1, ptr %7, align 8
  store i64 %2, ptr %8, align 8
  store i64 %3, ptr %9, align 8
  store i32 %4, ptr %10, align 4
  call void @llvm.lifetime.start.p0(i64 8, ptr %11) #14
  %12 = load ptr, ptr %7, align 8
  %13 = getelementptr inbounds nuw %struct.AllocBlockData, ptr %12, i32 0, i32 3
  %14 = load ptr, ptr %13, align 8
  store ptr %14, ptr %11, align 8
  br label %15

15:                                               ; preds = %5
  br label %16

16:                                               ; preds = %15
  br label %17

17:                                               ; preds = %16
  %18 = load i64, ptr %9, align 8
  %19 = add i64 %18, 8
  %20 = load ptr, ptr %7, align 8
  %21 = getelementptr inbounds nuw %struct.AllocBlockData, ptr %20, i32 0, i32 3
  %22 = load ptr, ptr %21, align 8
  %23 = getelementptr inbounds nuw i8, ptr %22, i64 %19
  store ptr %23, ptr %21, align 8
  %24 = load ptr, ptr %11, align 8
  %25 = load ptr, ptr %7, align 8
  %26 = load i32, ptr %10, align 4
  %27 = sext i32 %26 to i64
  call void @MemoryChunkSetHdrMask(ptr noundef %24, ptr noundef %25, i64 noundef %27, i32 noundef 3)
  br label %28

28:                                               ; preds = %17
  br label %29

29:                                               ; preds = %28
  br label %30

30:                                               ; preds = %29
  br label %31

31:                                               ; preds = %30
  br label %32

32:                                               ; preds = %31
  br label %33

33:                                               ; preds = %32
  %34 = load ptr, ptr %11, align 8
  %35 = getelementptr inbounds nuw i8, ptr %34, i64 8
  call void @llvm.lifetime.end.p0(i64 8, ptr %11) #14
  ret ptr %35
}

; Function Attrs: inlinehint nounwind uwtable
define internal i32 @AllocSetFreeIndex(i64 noundef %0) #8 {
  %2 = alloca i64, align 8
  %3 = alloca i32, align 4
  store i64 %0, ptr %2, align 8
  call void @llvm.lifetime.start.p0(i64 4, ptr %3) #14
  %4 = load i64, ptr %2, align 8
  %5 = icmp ugt i64 %4, 8
  br i1 %5, label %6, label %13

6:                                                ; preds = %1
  %7 = load i64, ptr %2, align 8
  %8 = trunc i64 %7 to i32
  %9 = sub i32 %8, 1
  %10 = call i32 @pg_leftmost_one_pos32(i32 noundef %9)
  %11 = sub i32 %10, 3
  %12 = add i32 %11, 1
  store i32 %12, ptr %3, align 4
  br label %14

13:                                               ; preds = %1
  store i32 0, ptr %3, align 4
  br label %14

14:                                               ; preds = %13, %6
  %15 = load i32, ptr %3, align 4
  call void @llvm.lifetime.end.p0(i64 4, ptr %3) #14
  ret i32 %15
}

; Function Attrs: nounwind uwtable
define dso_local ptr @AllocSetAlloc(ptr noundef %0, i64 noundef %1, i32 noundef %2) #0 {
  %4 = alloca ptr, align 8
  %5 = alloca ptr, align 8
  %6 = alloca i64, align 8
  %7 = alloca i32, align 4
  %8 = alloca ptr, align 8
  %9 = alloca ptr, align 8
  %10 = alloca ptr, align 8
  %11 = alloca i32, align 4
  %12 = alloca i64, align 8
  %13 = alloca i64, align 8
  %14 = alloca i32, align 4
  %15 = alloca ptr, align 8
  store ptr %0, ptr %5, align 8
  store i64 %1, ptr %6, align 8
  store i32 %2, ptr %7, align 4
  call void @llvm.lifetime.start.p0(i64 8, ptr %8) #14
  %16 = load ptr, ptr %5, align 8
  store ptr %16, ptr %8, align 8
  call void @llvm.lifetime.start.p0(i64 8, ptr %9) #14
  call void @llvm.lifetime.start.p0(i64 8, ptr %10) #14
  call void @llvm.lifetime.start.p0(i64 4, ptr %11) #14
  call void @llvm.lifetime.start.p0(i64 8, ptr %12) #14
  call void @llvm.lifetime.start.p0(i64 8, ptr %13) #14
  %17 = load i64, ptr %6, align 8
  %18 = load ptr, ptr %8, align 8
  %19 = getelementptr inbounds nuw %struct.AllocSetContext, ptr %18, i32 0, i32 6
  %20 = load i32, ptr %19, align 4
  %21 = zext i32 %20 to i64
  %22 = icmp ugt i64 %17, %21
  br i1 %22, label %23, label %28

23:                                               ; preds = %3
  %24 = load ptr, ptr %5, align 8
  %25 = load i64, ptr %6, align 8
  %26 = load i32, ptr %7, align 4
  %27 = call ptr @AllocSetAllocLarge(ptr noundef %24, i64 noundef %25, i32 noundef %26)
  store ptr %27, ptr %4, align 8
  store i32 1, ptr %14, align 4
  br label %106

28:                                               ; preds = %3
  %29 = load i64, ptr %6, align 8
  %30 = call i32 @AllocSetFreeIndex(i64 noundef %29)
  store i32 %30, ptr %11, align 4
  %31 = load ptr, ptr %8, align 8
  %32 = getelementptr inbounds nuw %struct.AllocSetContext, ptr %31, i32 0, i32 2
  %33 = load i32, ptr %11, align 4
  %34 = sext i32 %33 to i64
  %35 = getelementptr inbounds [11 x ptr], ptr %32, i64 0, i64 %34
  %36 = load ptr, ptr %35, align 8
  store ptr %36, ptr %10, align 8
  %37 = load ptr, ptr %10, align 8
  %38 = icmp ne ptr %37, null
  br i1 %38, label %39, label %67

39:                                               ; preds = %28
  call void @llvm.lifetime.start.p0(i64 8, ptr %15) #14
  %40 = load ptr, ptr %10, align 8
  %41 = getelementptr inbounds nuw i8, ptr %40, i64 8
  store ptr %41, ptr %15, align 8
  br label %42

42:                                               ; preds = %39
  br label %43

43:                                               ; preds = %42
  br label %44

44:                                               ; preds = %43
  br label %45

45:                                               ; preds = %44
  br label %46

46:                                               ; preds = %45
  br label %47

47:                                               ; preds = %46
  %48 = load ptr, ptr %15, align 8
  %49 = getelementptr inbounds nuw %struct.AllocFreeListLink, ptr %48, i32 0, i32 0
  %50 = load ptr, ptr %49, align 8
  %51 = load ptr, ptr %8, align 8
  %52 = getelementptr inbounds nuw %struct.AllocSetContext, ptr %51, i32 0, i32 2
  %53 = load i32, ptr %11, align 4
  %54 = sext i32 %53 to i64
  %55 = getelementptr inbounds [11 x ptr], ptr %52, i64 0, i64 %54
  store ptr %50, ptr %55, align 8
  br label %56

56:                                               ; preds = %47
  br label %57

57:                                               ; preds = %56
  br label %58

58:                                               ; preds = %57
  br label %59

59:                                               ; preds = %58
  br label %60

60:                                               ; preds = %59
  br label %61

61:                                               ; preds = %60
  br label %62

62:                                               ; preds = %61
  br label %63

63:                                               ; preds = %62
  br label %64

64:                                               ; preds = %63
  %65 = load ptr, ptr %10, align 8
  %66 = getelementptr inbounds nuw i8, ptr %65, i64 8
  store ptr %66, ptr %4, align 8
  store i32 1, ptr %14, align 4
  call void @llvm.lifetime.end.p0(i64 8, ptr %15) #14
  br label %106

67:                                               ; preds = %28
  %68 = load i32, ptr %11, align 4
  %69 = zext i32 %68 to i64
  %70 = shl i64 8, %69
  store i64 %70, ptr %12, align 8
  %71 = load ptr, ptr %8, align 8
  %72 = getelementptr inbounds nuw %struct.AllocSetContext, ptr %71, i32 0, i32 1
  %73 = load ptr, ptr %72, align 8
  store ptr %73, ptr %9, align 8
  %74 = load ptr, ptr %9, align 8
  %75 = getelementptr inbounds nuw %struct.AllocBlockData, ptr %74, i32 0, i32 4
  %76 = load ptr, ptr %75, align 8
  %77 = load ptr, ptr %9, align 8
  %78 = getelementptr inbounds nuw %struct.AllocBlockData, ptr %77, i32 0, i32 3
  %79 = load ptr, ptr %78, align 8
  %80 = ptrtoint ptr %76 to i64
  %81 = ptrtoint ptr %79 to i64
  %82 = sub i64 %80, %81
  store i64 %82, ptr %13, align 8
  %83 = load i64, ptr %13, align 8
  %84 = load i64, ptr %12, align 8
  %85 = add i64 %84, 8
  %86 = icmp ult i64 %83, %85
  %87 = zext i1 %86 to i32
  %88 = icmp ne i32 %87, 0
  %89 = zext i1 %88 to i32
  %90 = sext i32 %89 to i64
  %91 = call i64 @llvm.expect.i64(i64 %90, i64 0)
  %92 = icmp ne i64 %91, 0
  br i1 %92, label %93, label %99

93:                                               ; preds = %67
  %94 = load ptr, ptr %5, align 8
  %95 = load i64, ptr %6, align 8
  %96 = load i32, ptr %7, align 4
  %97 = load i32, ptr %11, align 4
  %98 = call ptr @AllocSetAllocFromNewBlock(ptr noundef %94, i64 noundef %95, i32 noundef %96, i32 noundef %97)
  store ptr %98, ptr %4, align 8
  store i32 1, ptr %14, align 4
  br label %106

99:                                               ; preds = %67
  %100 = load ptr, ptr %5, align 8
  %101 = load ptr, ptr %9, align 8
  %102 = load i64, ptr %6, align 8
  %103 = load i64, ptr %12, align 8
  %104 = load i32, ptr %11, align 4
  %105 = call ptr @AllocSetAllocChunkFromBlock(ptr noundef %100, ptr noundef %101, i64 noundef %102, i64 noundef %103, i32 noundef %104)
  store ptr %105, ptr %4, align 8
  store i32 1, ptr %14, align 4
  br label %106

106:                                              ; preds = %99, %93, %64, %23
  call void @llvm.lifetime.end.p0(i64 8, ptr %13) #14
  call void @llvm.lifetime.end.p0(i64 8, ptr %12) #14
  call void @llvm.lifetime.end.p0(i64 4, ptr %11) #14
  call void @llvm.lifetime.end.p0(i64 8, ptr %10) #14
  call void @llvm.lifetime.end.p0(i64 8, ptr %9) #14
  call void @llvm.lifetime.end.p0(i64 8, ptr %8) #14
  %107 = load ptr, ptr %4, align 8
  ret ptr %107
}