; Function Attrs: nounwind uwtable
define dso_local ptr @AllocSetAlloc(ptr noundef %0, i64 noundef %1, i32 noundef %2) local_unnamed_addr #0 {
  %4 = getelementptr inbounds nuw i8, ptr %0, i64 188
  %5 = load i32, ptr %4, align 4
  %6 = zext i32 %5 to i64
  %7 = icmp ugt i64 %1, %6
  br i1 %7, label %8, label %10

8:                                                ; preds = %3
  %9 = tail call fastcc ptr @AllocSetAllocLarge(ptr noundef nonnull %0, i64 noundef %1, i32 noundef %2)
  br label %49

10:                                               ; preds = %3
  %11 = icmp samesign ugt i64 %1, 8
  %12 = trunc i64 %1 to i32
  %13 = add i32 %12, -1
  %14 = tail call range(i32 0, 33) i32 @llvm.ctlz.i32(i32 %13, i1 true)
  %15 = sub nsw i32 29, %14
  %.0.i = select i1 %11, i32 %15, i32 0
  %16 = getelementptr inbounds nuw i8, ptr %0, i64 88
  %17 = sext i32 %.0.i to i64
  %18 = getelementptr inbounds [11 x ptr], ptr %16, i64 0, i64 %17
  %19 = load ptr, ptr %18, align 8
  %.not = icmp eq ptr %19, null
  br i1 %.not, label %23, label %20

20:                                               ; preds = %10
  %21 = getelementptr inbounds nuw i8, ptr %19, i64 8
  %22 = load ptr, ptr %21, align 8
  store ptr %22, ptr %18, align 8
  br label %49

23:                                               ; preds = %10
  %24 = zext nneg i32 %.0.i to i64
  %25 = shl i64 8, %24
  %26 = getelementptr inbounds nuw i8, ptr %0, i64 80
  %27 = load ptr, ptr %26, align 8
  %28 = getelementptr inbounds nuw i8, ptr %27, i64 32
  %29 = load ptr, ptr %28, align 8
  %30 = getelementptr inbounds nuw i8, ptr %27, i64 24
  %31 = load ptr, ptr %30, align 8
  %32 = ptrtoint ptr %29 to i64
  %33 = ptrtoint ptr %31 to i64
  %34 = sub i64 %32, %33
  %35 = add nuw i64 %25, 8
  %36 = icmp ult i64 %34, %35
  br i1 %36, label %37, label %39, !prof !11

37:                                               ; preds = %23
  %38 = tail call fastcc ptr @AllocSetAllocFromNewBlock(ptr noundef nonnull %0, i64 noundef %1, i32 noundef %2, i32 noundef %.0.i)
  br label %49

39:                                               ; preds = %23
  %40 = getelementptr i8, ptr %31, i64 %25
  %41 = getelementptr i8, ptr %40, i64 8
  store ptr %41, ptr %30, align 8
  %42 = ptrtoint ptr %27 to i64
  %43 = sub i64 %33, %42
  %44 = shl i64 %43, 34
  %45 = shl nsw i64 %17, 5
  %46 = or i64 %45, %44
  %47 = or disjoint i64 %46, 3
  store i64 %47, ptr %31, align 8
  %48 = getelementptr inbounds nuw i8, ptr %31, i64 8
  br label %49

49:                                               ; preds = %39, %37, %20, %8
  %.0 = phi ptr [ %9, %8 ], [ %21, %20 ], [ %38, %37 ], [ %48, %39 ]
  ret ptr %.0
}